target datalayout = "e-m:e-p270:32:32-p271:32:32-p272:64:64-i64:64-i128:128-f80:128-n8:16:32:64-S128"
target triple = "x86_64-pc-linux-gnu"

%struct.jv = type { i8, i8, i16, i32, %union.anon }
%union.anon = type { ptr }
%struct.__va_list_tag = type { i32, i32, ptr, ptr }

; Function Attrs: nounwind uwtable
define dso_local { i64, ptr } @jv_string_vfmt(ptr noundef %0, ptr noundef %1) #0 {
  %3 = alloca %struct.jv, align 8
  %4 = alloca ptr, align 8
  %5 = alloca ptr, align 8
  %6 = alloca i32, align 4
  %7 = alloca ptr, align 8
  %8 = alloca [1 x %struct.__va_list_tag], align 16
  %9 = alloca i32, align 4
  %10 = alloca i32, align 4
  store ptr %0, ptr %4, align 8, !tbaa !30
  store ptr %1, ptr %5, align 8, !tbaa !66
  call void @llvm.lifetime.start.p0(i64 4, ptr %6) #11
  store i32 1024, ptr %6, align 4, !tbaa !10
  br label %11

11:                                               ; preds = %55, %2
  br label %12

12:                                               ; preds = %11
  call void @llvm.lifetime.start.p0(i64 8, ptr %7) #11
  %13 = load i32, ptr %6, align 4, !tbaa !10
  %14 = sext i32 %13 to i64
  %15 = call ptr @jv_mem_alloc(i64 noundef %14)
  store ptr %15, ptr %7, align 8, !tbaa !30
  call void @llvm.lifetime.start.p0(i64 24, ptr %8) #11
  %16 = getelementptr inbounds [1 x %struct.__va_list_tag], ptr %8, i64 0, i64 0
  %17 = load ptr, ptr %5, align 8, !tbaa !66
  call void @llvm.va_copy.p0(ptr %16, ptr %17)
  call void @llvm.lifetime.start.p0(i64 4, ptr %9) #11
  %18 = load ptr, ptr %7, align 8, !tbaa !30
  %19 = load i32, ptr %6, align 4, !tbaa !10
  %20 = sext i32 %19 to i64
  %21 = load ptr, ptr %4, align 8, !tbaa !30
  %22 = getelementptr inbounds [1 x %struct.__va_list_tag], ptr %8, i64 0, i64 0
  %23 = call i32 @vsnprintf(ptr noundef %18, i64 noundef %20, ptr noundef %21, ptr noundef %22) #11
  store i32 %23, ptr %9, align 4, !tbaa !10
  %24 = getelementptr inbounds [1 x %struct.__va_list_tag], ptr %8, i64 0, i64 0
  call void @llvm.va_end.p0(ptr %24)
  %25 = load i32, ptr %9, align 4, !tbaa !10
  %26 = icmp sge i32 %25, 0
  br i1 %26, label %27, label %40

27:                                               ; preds = %12
  %28 = load i32, ptr %9, align 4, !tbaa !10
  %29 = load i32, ptr %6, align 4, !tbaa !10
  %30 = icmp slt i32 %28, %29
  br i1 %30, label %31, label %40

31:                                               ; preds = %27
  %32 = load ptr, ptr %7, align 8, !tbaa !30
  %33 = load i32, ptr %9, align 4, !tbaa !10
  %34 = call { i64, ptr } @jv_string_sized(ptr noundef %32, i32 noundef %33)
  %35 = getelementptr inbounds nuw { i64, ptr }, ptr %3, i32 0, i32 0
  %36 = extractvalue { i64, ptr } %34, 0
  store i64 %36, ptr %35, align 8
  %37 = getelementptr inbounds nuw { i64, ptr }, ptr %3, i32 0, i32 1
  %38 = extractvalue { i64, ptr } %34, 1
  store ptr %38, ptr %37, align 8
  %39 = load ptr, ptr %7, align 8, !tbaa !30
  call void @jv_mem_free(ptr noundef %39)
  store i32 1, ptr %10, align 4
  br label %53

40:                                               ; preds = %27, %12
  %41 = load ptr, ptr %7, align 8, !tbaa !30
  call void @jv_mem_free(ptr noundef %41)
  %42 = load i32, ptr %9, align 4, !tbaa !10
  %43 = icmp sgt i32 %42, 0
  br i1 %43, label %44, label %47

44:                                               ; preds = %40
  %45 = load i32, ptr %9, align 4, !tbaa !10
  %46 = mul nsw i32 %45, 2
  br label %50

47:                                               ; preds = %40
  %48 = load i32, ptr %6, align 4, !tbaa !10
  %49 = mul nsw i32 %48, 2
  br label %50

50:                                               ; preds = %47, %44
  %51 = phi i32 [ %46, %44 ], [ %49, %47 ]
  store i32 %51, ptr %6, align 4, !tbaa !10
  br label %52

52:                                               ; preds = %50
  store i32 0, ptr %10, align 4
  br label %53

53:                                               ; preds = %52, %31
  call void @llvm.lifetime.end.p0(i64 4, ptr %9) #11
  call void @llvm.lifetime.end.p0(i64 24, ptr %8) #11
  call void @llvm.lifetime.end.p0(i64 8, ptr %7) #11
  %54 = load i32, ptr %10, align 4
  switch i32 %54, label %56 [
    i32 0, label %55
  ]

55:                                               ; preds = %53
  br label %11

56:                                               ; preds = %53
  call void @llvm.lifetime.end.p0(i64 4, ptr %6) #11
  %57 = load { i64, ptr }, ptr %3, align 8
  ret { i64, ptr } %57
}