; Function Attrs: nounwind uwtable
define dso_local { i64, ptr } @jv_string_vfmt(ptr noundef readonly captures(none) %0, ptr noundef %1) local_unnamed_addr #2 {
  %3 = alloca [1 x %struct.__va_list_tag], align 16
  %4 = tail call ptr @jv_mem_alloc(i64 noundef 1024) #25
  call void @llvm.lifetime.start.p0(i64 24, ptr nonnull %3) #25
  call void @llvm.va_copy.p0(ptr nonnull %3, ptr %1)
  %5 = call i32 @vsnprintf(ptr noundef %4, i64 noundef 1024, ptr noundef %0, ptr noundef nonnull %3) #25
  call void @llvm.va_end.p0(ptr nonnull %3)
  %or.cond22 = icmp ult i32 %5, 1024
  br i1 %or.cond22, label %._crit_edge, label %.lr.ph

.lr.ph:                                           ; preds = %2, %.lr.ph
  %6 = phi i32 [ %12, %.lr.ph ], [ %5, %2 ]
  %7 = phi ptr [ %11, %.lr.ph ], [ %4, %2 ]
  %.01523 = phi i32 [ %9, %.lr.ph ], [ 1024, %2 ]
  call void @jv_mem_free(ptr noundef %7) #25
  %8 = icmp sgt i32 %6, 0
  %.v = select i1 %8, i32 %6, i32 %.01523
  %9 = shl nsw i32 %.v, 1
  call void @llvm.lifetime.end.p0(i64 24, ptr nonnull %3) #25
  %10 = sext i32 %9 to i64
  %11 = call ptr @jv_mem_alloc(i64 noundef %10) #25
  call void @llvm.lifetime.start.p0(i64 24, ptr nonnull %3) #25
  call void @llvm.va_copy.p0(ptr nonnull %3, ptr %1)
  %12 = call i32 @vsnprintf(ptr noundef %11, i64 noundef %10, ptr noundef %0, ptr noundef nonnull %3) #25
  call void @llvm.va_end.p0(ptr nonnull %3)
  %13 = icmp sgt i32 %12, -1
  %14 = icmp slt i32 %12, %9
  %or.cond = and i1 %13, %14
  br i1 %or.cond, label %._crit_edge, label %.lr.ph

._crit_edge:                                      ; preds = %.lr.ph, %2
  %.lcssa21 = phi ptr [ %4, %2 ], [ %11, %.lr.ph ]
  %.lcssa = phi i32 [ %5, %2 ], [ %12, %.lr.ph ]
  %15 = call { i64, ptr } @jv_string_sized(ptr noundef %.lcssa21, i32 noundef %.lcssa)
  %16 = extractvalue { i64, ptr } %15, 1
  call void @jv_mem_free(ptr noundef %.lcssa21) #25
  call void @llvm.lifetime.end.p0(i64 24, ptr nonnull %3) #25
  %.fca.1.insert = insertvalue { i64, ptr } { i64 133, ptr undef }, ptr %16, 1
  ret { i64, ptr } %.fca.1.insert
}